target datalayout = "e-m:e-p270:32:32-p271:32:32-p272:64:64-i64:64-i128:128-f80:128-n8:16:32:64-S128"
target triple = "x86_64-pc-linux-gnu"

%struct.seq_t = type { i64, i64, i64 }

; Function Attrs: nounwind uwtable
define internal i64 @ZSTD_execSequenceEnd(ptr noundef %0, ptr noundef %1, ptr noundef byval(%struct.seq_t) align 8 %2, ptr noundef %3, ptr noundef %4, ptr noundef %5, ptr noundef %6, ptr noundef %7) #0 {
  %9 = alloca i64, align 8
  %10 = alloca ptr, align 8
  %11 = alloca ptr, align 8
  %12 = alloca ptr, align 8
  %13 = alloca ptr, align 8
  %14 = alloca ptr, align 8
  %15 = alloca ptr, align 8
  %16 = alloca ptr, align 8
  %17 = alloca ptr, align 8
  %18 = alloca i64, align 8
  %19 = alloca ptr, align 8
  %20 = alloca ptr, align 8
  %21 = alloca ptr, align 8
  %22 = alloca i64, align 8
  store ptr %0, ptr %10, align 8
  store ptr %1, ptr %11, align 8
  store ptr %3, ptr %12, align 8
  store ptr %4, ptr %13, align 8
  store ptr %5, ptr %14, align 8
  store ptr %6, ptr %15, align 8
  store ptr %7, ptr %16, align 8
  %23 = load ptr, ptr %10, align 8
  %24 = getelementptr inbounds %struct.seq_t, ptr %2, i32 0, i32 0
  %25 = load i64, ptr %24, align 8
  %26 = getelementptr inbounds i8, ptr %23, i64 %25
  store ptr %26, ptr %17, align 8
  %27 = getelementptr inbounds %struct.seq_t, ptr %2, i32 0, i32 0
  %28 = load i64, ptr %27, align 8
  %29 = getelementptr inbounds %struct.seq_t, ptr %2, i32 0, i32 1
  %30 = load i64, ptr %29, align 8
  %31 = add i64 %28, %30
  store i64 %31, ptr %18, align 8
  %32 = load ptr, ptr %12, align 8
  %33 = load ptr, ptr %32, align 8
  %34 = getelementptr inbounds %struct.seq_t, ptr %2, i32 0, i32 0
  %35 = load i64, ptr %34, align 8
  %36 = getelementptr inbounds i8, ptr %33, i64 %35
  store ptr %36, ptr %19, align 8
  %37 = load ptr, ptr %17, align 8
  %38 = getelementptr inbounds %struct.seq_t, ptr %2, i32 0, i32 2
  %39 = load i64, ptr %38, align 8
  %40 = sub i64 0, %39
  %41 = getelementptr inbounds i8, ptr %37, i64 %40
  store ptr %41, ptr %20, align 8
  %42 = load ptr, ptr %11, align 8
  %43 = getelementptr inbounds i8, ptr %42, i64 -32
  store ptr %43, ptr %21, align 8
  %44 = load i64, ptr %18, align 8
  %45 = load ptr, ptr %11, align 8
  %46 = load ptr, ptr %10, align 8
  %47 = ptrtoint ptr %45 to i64
  %48 = ptrtoint ptr %46 to i64
  %49 = sub i64 %47, %48
  %50 = icmp ugt i64 %44, %49
  br i1 %50, label %51, label %52

51:                                               ; preds = %8
  store i64 -70, ptr %9, align 8
  br label %136

52:                                               ; preds = %8
  %53 = getelementptr inbounds %struct.seq_t, ptr %2, i32 0, i32 0
  %54 = load i64, ptr %53, align 8
  %55 = load ptr, ptr %13, align 8
  %56 = load ptr, ptr %12, align 8
  %57 = load ptr, ptr %56, align 8
  %58 = ptrtoint ptr %55 to i64
  %59 = ptrtoint ptr %57 to i64
  %60 = sub i64 %58, %59
  %61 = icmp ugt i64 %54, %60
  br i1 %61, label %62, label %63

62:                                               ; preds = %52
  store i64 -20, ptr %9, align 8
  br label %136

63:                                               ; preds = %52
  %64 = load ptr, ptr %10, align 8
  %65 = load ptr, ptr %21, align 8
  %66 = load ptr, ptr %12, align 8
  %67 = load ptr, ptr %66, align 8
  %68 = getelementptr inbounds %struct.seq_t, ptr %2, i32 0, i32 0
  %69 = load i64, ptr %68, align 8
  call void @ZSTD_safecopy(ptr noundef %64, ptr noundef %65, ptr noundef %67, i64 noundef %69, i32 noundef 0)
  %70 = load ptr, ptr %17, align 8
  store ptr %70, ptr %10, align 8
  %71 = load ptr, ptr %19, align 8
  %72 = load ptr, ptr %12, align 8
  store ptr %71, ptr %72, align 8
  %73 = getelementptr inbounds %struct.seq_t, ptr %2, i32 0, i32 2
  %74 = load i64, ptr %73, align 8
  %75 = load ptr, ptr %17, align 8
  %76 = load ptr, ptr %14, align 8
  %77 = ptrtoint ptr %75 to i64
  %78 = ptrtoint ptr %76 to i64
  %79 = sub i64 %77, %78
  %80 = icmp ugt i64 %74, %79
  br i1 %80, label %81, label %129

81:                                               ; preds = %63
  %82 = getelementptr inbounds %struct.seq_t, ptr %2, i32 0, i32 2
  %83 = load i64, ptr %82, align 8
  %84 = load ptr, ptr %17, align 8
  %85 = load ptr, ptr %15, align 8
  %86 = ptrtoint ptr %84 to i64
  %87 = ptrtoint ptr %85 to i64
  %88 = sub i64 %86, %87
  %89 = icmp ugt i64 %83, %88
  br i1 %89, label %90, label %91

90:                                               ; preds = %81
  store i64 -20, ptr %9, align 8
  br label %136

91:                                               ; preds = %81
  %92 = load ptr, ptr %16, align 8
  %93 = load ptr, ptr %14, align 8
  %94 = load ptr, ptr %20, align 8
  %95 = ptrtoint ptr %93 to i64
  %96 = ptrtoint ptr %94 to i64
  %97 = sub i64 %95, %96
  %98 = sub i64 0, %97
  %99 = getelementptr inbounds i8, ptr %92, i64 %98
  store ptr %99, ptr %20, align 8
  %100 = load ptr, ptr %20, align 8
  %101 = getelementptr inbounds %struct.seq_t, ptr %2, i32 0, i32 1
  %102 = load i64, ptr %101, align 8
  %103 = getelementptr inbounds i8, ptr %100, i64 %102
  %104 = load ptr, ptr %16, align 8
  %105 = icmp ule ptr %103, %104
  br i1 %105, label %106, label %112

106:                                              ; preds = %91
  %107 = load ptr, ptr %17, align 8
  %108 = load ptr, ptr %20, align 8
  %109 = getelementptr inbounds %struct.seq_t, ptr %2, i32 0, i32 1
  %110 = load i64, ptr %109, align 8
  call void @llvm.memmove.p0.p0.i64(ptr align 1 %107, ptr align 1 %108, i64 %110, i1 false)
  %111 = load i64, ptr %18, align 8
  store i64 %111, ptr %9, align 8
  br label %136

112:                                              ; preds = %91
  %113 = load ptr, ptr %16, align 8
  %114 = load ptr, ptr %20, align 8
  %115 = ptrtoint ptr %113 to i64
  %116 = ptrtoint ptr %114 to i64
  %117 = sub i64 %115, %116
  store i64 %117, ptr %22, align 8
  %118 = load ptr, ptr %17, align 8
  %119 = load ptr, ptr %20, align 8
  %120 = load i64, ptr %22, align 8
  call void @llvm.memmove.p0.p0.i64(ptr align 1 %118, ptr align 1 %119, i64 %120, i1 false)
  %121 = load ptr, ptr %17, align 8
  %122 = load i64, ptr %22, align 8
  %123 = getelementptr inbounds i8, ptr %121, i64 %122
  store ptr %123, ptr %10, align 8
  %124 = load i64, ptr %22, align 8
  %125 = getelementptr inbounds %struct.seq_t, ptr %2, i32 0, i32 1
  %126 = load i64, ptr %125, align 8
  %127 = sub i64 %126, %124
  store i64 %127, ptr %125, align 8
  %128 = load ptr, ptr %14, align 8
  store ptr %128, ptr %20, align 8
  br label %129

129:                                              ; preds = %112, %63
  %130 = load ptr, ptr %10, align 8
  %131 = load ptr, ptr %21, align 8
  %132 = load ptr, ptr %20, align 8
  %133 = getelementptr inbounds %struct.seq_t, ptr %2, i32 0, i32 1
  %134 = load i64, ptr %133, align 8
  call void @ZSTD_safecopy(ptr noundef %130, ptr noundef %131, ptr noundef %132, i64 noundef %134, i32 noundef 1)
  %135 = load i64, ptr %18, align 8
  store i64 %135, ptr %9, align 8
  br label %136

136:                                              ; preds = %129, %106, %90, %62, %51
  %137 = load i64, ptr %9, align 8
  ret i64 %137
}