; Function Attrs: nofree norecurse nosync nounwind memory(readwrite, inaccessiblemem: none) uwtable
define internal fastcc i64 @ZSTD_execSequenceEnd(ptr noundef %0, ptr noundef %1, ptr noundef readonly byval(%struct.seq_t) align 8 captures(none) %2, ptr noundef nonnull captures(none) %3, ptr noundef %4, ptr noundef %5, ptr noundef %6, ptr noundef readonly %7) unnamed_addr #11 {
  %9 = load i64, ptr %2, align 8
  %10 = getelementptr inbounds i8, ptr %0, i64 %9
  %11 = getelementptr inbounds nuw i8, ptr %2, i64 8
  %12 = load i64, ptr %11, align 8
  %13 = add i64 %12, %9
  %14 = load ptr, ptr %3, align 8
  %15 = getelementptr inbounds i8, ptr %14, i64 %9
  %16 = getelementptr inbounds nuw i8, ptr %2, i64 16
  %17 = load i64, ptr %16, align 8
  %18 = sub i64 0, %17
  %19 = getelementptr inbounds i8, ptr %10, i64 %18
  %20 = getelementptr inbounds i8, ptr %1, i64 -32
  %21 = ptrtoint ptr %1 to i64
  %22 = ptrtoint ptr %0 to i64
  %23 = sub i64 %21, %22
  %24 = icmp ugt i64 %13, %23
  br i1 %24, label %85, label %25

25:                                               ; preds = %8
  %26 = ptrtoint ptr %4 to i64
  %27 = ptrtoint ptr %14 to i64
  %28 = sub i64 %26, %27
  %29 = icmp ugt i64 %9, %28
  br i1 %29, label %85, label %30

30:                                               ; preds = %25
  %31 = icmp slt i64 %9, 8
  br i1 %31, label %.preheader.i, label %37

.preheader.i:                                     ; preds = %30
  %32 = icmp sgt i64 %9, 0
  br i1 %32, label %.lr.ph164.i, label %ZSTD_safecopy.exit

.lr.ph164.i:                                      ; preds = %.preheader.i, %.lr.ph164.i
  %.0137163.i = phi ptr [ %35, %.lr.ph164.i ], [ %0, %.preheader.i ]
  %.0139162.i = phi ptr [ %33, %.lr.ph164.i ], [ %14, %.preheader.i ]
  %33 = getelementptr inbounds nuw i8, ptr %.0139162.i, i64 1
  %34 = load i8, ptr %.0139162.i, align 1
  %35 = getelementptr inbounds nuw i8, ptr %.0137163.i, i64 1
  store i8 %34, ptr %.0137163.i, align 1
  %36 = icmp ult ptr %35, %10
  br i1 %36, label %.lr.ph164.i, label %ZSTD_safecopy.exit, !llvm.loop !61

37:                                               ; preds = %30
  %.not.i = icmp ugt ptr %10, %20
  br i1 %.not.i, label %47, label %38

38:                                               ; preds = %37
  %.1140.val150.i = load <2 x i64>, ptr %14, align 1
  store <2 x i64> %.1140.val150.i, ptr %0, align 1
  %39 = icmp samesign ult i64 %9, 17
  br i1 %39, label %ZSTD_safecopy.exit, label %40

40:                                               ; preds = %38
  %41 = getelementptr inbounds nuw i8, ptr %0, i64 16
  br label %42

42:                                               ; preds = %42, %40
  %.197.i = phi ptr [ %41, %40 ], [ %45, %42 ]
  %.1140.pn148.i = phi ptr [ %14, %40 ], [ %44, %42 ]
  %.1.i = getelementptr inbounds nuw i8, ptr %.1140.pn148.i, i64 16
  %.1.val.i = load <2 x i64>, ptr %.1.i, align 1
  store <2 x i64> %.1.val.i, ptr %.197.i, align 1
  %43 = getelementptr inbounds nuw i8, ptr %.197.i, i64 16
  %44 = getelementptr inbounds nuw i8, ptr %.1140.pn148.i, i64 32
  %.val149.i = load <2 x i64>, ptr %44, align 1
  store <2 x i64> %.val149.i, ptr %43, align 1
  %45 = getelementptr inbounds nuw i8, ptr %.197.i, i64 32
  %46 = icmp ult ptr %45, %10
  br i1 %46, label %42, label %ZSTD_safecopy.exit, !llvm.loop !27

47:                                               ; preds = %37
  %.not147.i = icmp ugt ptr %0, %20
  br i1 %.not147.i, label %61, label %48

48:                                               ; preds = %47
  %49 = ptrtoint ptr %20 to i64
  %50 = sub i64 %49, %22
  %51 = getelementptr inbounds i8, ptr %0, i64 %50
  %.1140.val.i = load <2 x i64>, ptr %14, align 1
  store <2 x i64> %.1140.val.i, ptr %0, align 1
  %52 = icmp slt i64 %50, 17
  br i1 %52, label %.loopexit155.i, label %53

53:                                               ; preds = %48
  %54 = getelementptr inbounds nuw i8, ptr %0, i64 16
  br label %55

55:                                               ; preds = %55, %53
  %.1102.i = phi ptr [ %54, %53 ], [ %58, %55 ]
  %.1140.pn.i = phi ptr [ %14, %53 ], [ %57, %55 ]
  %.199.i = getelementptr inbounds nuw i8, ptr %.1140.pn.i, i64 16
  %.199.val.i = load <2 x i64>, ptr %.199.i, align 1
  store <2 x i64> %.199.val.i, ptr %.1102.i, align 1
  %56 = getelementptr inbounds nuw i8, ptr %.1102.i, i64 16
  %57 = getelementptr inbounds nuw i8, ptr %.1140.pn.i, i64 32
  %.val.i = load <2 x i64>, ptr %57, align 1
  store <2 x i64> %.val.i, ptr %56, align 1
  %58 = getelementptr inbounds nuw i8, ptr %.1102.i, i64 32
  %59 = icmp ult ptr %58, %20
  br i1 %59, label %55, label %.loopexit155.i, !llvm.loop !27

.loopexit155.i:                                   ; preds = %55, %48
  %60 = getelementptr inbounds i8, ptr %14, i64 %50
  br label %61

61:                                               ; preds = %.loopexit155.i, %47
  %.3142.i = phi ptr [ %60, %.loopexit155.i ], [ %14, %47 ]
  %.2.i = phi ptr [ %51, %.loopexit155.i ], [ %0, %47 ]
  %62 = icmp ult ptr %.2.i, %10
  br i1 %62, label %.lr.ph.i, label %ZSTD_safecopy.exit

.lr.ph.i:                                         ; preds = %61, %.lr.ph.i
  %.3161.i = phi ptr [ %65, %.lr.ph.i ], [ %.2.i, %61 ]
  %.4160.i = phi ptr [ %63, %.lr.ph.i ], [ %.3142.i, %61 ]
  %63 = getelementptr inbounds nuw i8, ptr %.4160.i, i64 1
  %64 = load i8, ptr %.4160.i, align 1
  %65 = getelementptr inbounds nuw i8, ptr %.3161.i, i64 1
  store i8 %64, ptr %.3161.i, align 1
  %66 = icmp ult ptr %65, %10
  br i1 %66, label %.lr.ph.i, label %ZSTD_safecopy.exit, !llvm.loop !62

ZSTD_safecopy.exit:                               ; preds = %42, %.lr.ph.i, %.lr.ph164.i, %.preheader.i, %38, %61
  store ptr %15, ptr %3, align 8
  %67 = ptrtoint ptr %10 to i64
  %68 = ptrtoint ptr %5 to i64
  %69 = sub i64 %67, %68
  %70 = icmp ugt i64 %17, %69
  br i1 %70, label %71, label %83

71:                                               ; preds = %ZSTD_safecopy.exit
  %72 = ptrtoint ptr %6 to i64
  %73 = sub i64 %67, %72
  %74 = icmp ugt i64 %17, %73
  br i1 %74, label %85, label %75

75:                                               ; preds = %71
  %76 = ptrtoint ptr %19 to i64
  %.neg = sub i64 %76, %68
  %77 = getelementptr inbounds i8, ptr %7, i64 %.neg
  %78 = getelementptr inbounds i8, ptr %77, i64 %12
  %.not = icmp ugt ptr %78, %7
  br i1 %.not, label %80, label %79

79:                                               ; preds = %75
  tail call void @llvm.memmove.p0.p0.i64(ptr align 1 %10, ptr align 1 %77, i64 %12, i1 false)
  br label %85

80:                                               ; preds = %75
  %diff.neg = sub i64 0, %.neg
  tail call void @llvm.memmove.p0.p0.i64(ptr align 1 %10, ptr align 1 %77, i64 %diff.neg, i1 false)
  %81 = getelementptr inbounds i8, ptr %10, i64 %diff.neg
  %82 = add i64 %.neg, %12
  br label %83

83:                                               ; preds = %80, %ZSTD_safecopy.exit
  %84 = phi i64 [ %82, %80 ], [ %12, %ZSTD_safecopy.exit ]
  %.041 = phi ptr [ %5, %80 ], [ %19, %ZSTD_safecopy.exit ]
  %.040 = phi ptr [ %81, %80 ], [ %10, %ZSTD_safecopy.exit ]
  tail call fastcc void @ZSTD_safecopy(ptr noundef %.040, ptr noundef nonnull %20, ptr noundef %.041, i64 noundef %84, i32 noundef 1)
  br label %85

85:                                               ; preds = %71, %25, %8, %83, %79
  %.0 = phi i64 [ %13, %79 ], [ %13, %83 ], [ -70, %8 ], [ -20, %25 ], [ -20, %71 ]
  ret i64 %.0
}